(lp0
(lp1
(I502
I180
tp2
a(I772
I255
tp3
aa(lp4
(I1234
I302
tp5
a(I1294
I446
tp6
aa(lp7
(I1231
I552
tp8
a(I1294
I660
tp9
aa(lp10
(I1086
I533
tp11
a(I1171
I695
tp12
aa(lp13
(I649
I380
tp14
a(I739
I502
tp15
aa(lp16
(I872
I252
tp17
a(I895
I305
tp18
aa(lp19
(I406
I97
tp20
a(I449
I128
tp21
aa(lp22
(I511
I95
tp23
a(I546
I126
tp24
aa(lp25
(I560
I95
tp26
a(I588
I126
tp27
aa(lp28
(I633
I95
tp29
a(I665
I128
tp30
aa(lp31
(I681
I93
tp32
a(I712
I128
tp33
aa(lp34
(I758
I101
tp35
a(I783
I122
tp36
aa(lp37
(I429
I650
tp38
a(I457
I750
tp39
aa(lp40
(I846
I459
tp41
a(I883
I486
tp42
aa(lp43
(I991
I739
tp44
a(I1045
I765
tp45
aa.