(lp0
(lp1
(I499
I180
tp2
a(I756
I251
tp3
aa(lp4
(I463
I311
tp5
a(I596
I392
tp6
aa(lp7
(I639
I361
tp8
a(I750
I518
tp9
aa(lp10
(I752
I411
tp11
a(I799
I429
tp12
aa(lp13
(I754
I440
tp14
a(I800
I456
tp15
aa(lp16
(I849
I322
tp17
a(I880
I340
tp18
aa(lp19
(I853
I359
tp20
a(I881
I375
tp21
aa(lp22
(I873
I255
tp23
a(I889
I305
tp24
aa(lp25
(I850
I197
tp26
a(I864
I241
tp27
aa(lp28
(I410
I99
tp29
a(I440
I124
tp30
aa(lp31
(I518
I97
tp32
a(I542
I124
tp33
aa(lp34
(I558
I97
tp35
a(I585
I124
tp36
aa(lp37
(I637
I99
tp38
a(I667
I128
tp39
aa(lp40
(I680
I101
tp41
a(I708
I126
tp42
aa(lp43
(I758
I97
tp44
a(I788
I126
tp45
aa(lp46
(I396
I136
tp47
a(I425
I180
tp48
aa(lp49
(I411
I368
tp50
a(I442
I400
tp51
aa(lp52
(I422
I315
tp53
a(I446
I356
tp54
aa(lp55
(I446
I400
tp56
a(I546
I427
tp57
aa(lp58
(I554
I427
tp59
a(I565
I449
tp60
aa(lp61
(I548
I507
tp62
a(I560
I525
tp63
aa(lp64
(I577
I521
tp65
a(I588
I544
tp66
aa(lp67
(I592
I400
tp68
a(I631
I422
tp69
aa(lp70
(I846
I463
tp71
a(I883
I477
tp72
aa(lp73
(I669
I560
tp74
a(I708
I577
tp75
aa(lp76
(I584
I703
tp77
a(I623
I718
tp78
aa(lp79
(I677
I707
tp80
a(I715
I734
tp81
aa(lp82
(I571
I751
tp83
a(I633
I769
tp84
aa(lp85
(I471
I692
tp86
a(I502
I727
tp87
aa(lp88
(I457
I650
tp89
a(I549
I683
tp90
aa(lp91
(I552
I631
tp92
a(I583
I673
tp93
aa(lp94
(I452
I569
tp95
a(I546
I641
tp96
aa(lp97
(I417
I434
tp98
a(I529
I540
tp99
aa(lp100
(I380
I537
tp101
a(I418
I561
tp102
aa(lp103
(I388
I575
tp104
a(I430
I602
tp105
aa(lp106
(I429
I645
tp107
a(I453
I679
tp108
aa(lp109
(I429
I723
tp110
a(I459
I756
tp111
aa(lp112
(I425
I818
tp113
a(I588
I895
tp114
aa(lp115
(I837
I780
tp116
a(I878
I804
tp117
aa(lp118
(I1007
I777
tp119
a(I1066
I842
tp120
aa(lp121
(I1230
I554
tp122
a(I1297
I665
tp123
aa(lp124
(I1232
I305
tp125
a(I1300
I442
tp126
aa(lp127
(I905
I206
tp128
a(I1217
I459
tp129
aa(lp130
(I1069
I517
tp131
a(I1190
I724
tp132
aa(lp133
(I991
I745
tp134
a(I1050
I760
tp135
aa(lp136
(I775
I499
tp137
a(I1046
I726
tp138
aa(lp139
(I696
I823
tp140
a(I834
I889
tp141
aa(lp142
(I1142
I749
tp143
a(I1262
I764
tp144
aa(lp145
(I612
I587
tp146
a(I661
I660
tp147
aa(lp148
(I739
I274
tp149
a(I807
I328
tp150
aa.