(lp0
(lp1
(I499
I184
tp2
a(I750
I249
tp3
aa(lp4
(I465
I313
tp5
a(I595
I390
tp6
aa(lp7
(I425
I650
tp8
a(I452
I680
tp9
aa(lp10
(I457
I660
tp11
a(I546
I687
tp12
aa(lp13
(I452
I575
tp14
a(I541
I637
tp15
aa(lp16
(I411
I437
tp17
a(I525
I541
tp18
aa(lp19
(I445
I403
tp20
a(I544
I427
tp21
aa(lp22
(I770
I294
tp23
a(I814
I359
tp24
aa(lp25
(I850
I325
tp26
a(I881
I344
tp27
aa(lp28
(I851
I359
tp29
a(I881
I375
tp30
aa(lp31
(I872
I257
tp32
a(I892
I303
tp33
aa(lp34
(I1234
I307
tp35
a(I1298
I446
tp36
aa(lp37
(I914
I257
tp38
a(I1217
I465
tp39
aa(lp40
(I779
I504
tp41
a(I1045
I730
tp42
aa(lp43
(I1072
I513
tp44
a(I1196
I726
tp45
aa(lp46
(I1235
I554
tp47
a(I1293
I664
tp48
aa(lp49
(I1008
I777
tp50
a(I1063
I843
tp51
aa(lp52
(I423
I724
tp53
a(I457
I756
tp54
aa(lp55
(I472
I695
tp56
a(I509
I734
tp57
aa(lp58
(I567
I751
tp59
a(I629
I770
tp60
aa(lp61
(I579
I699
tp62
a(I633
I724
tp63
aa(lp64
(I671
I697
tp65
a(I719
I746
tp66
aa(lp67
(I796
I433
tp68
a(I750
I406
tp69
aa(lp70
(I804
I463
tp71
a(I752
I440
tp72
aa(lp73
(I634
I437
tp74
a(I590
I391
tp75
aa(lp76
(I572
I464
tp77
a(I554
I410
tp78
aa(lp79
(I590
I545
tp80
a(I576
I518
tp81
aa(lp82
(I560
I525
tp83
a(I544
I503
tp84
aa(lp85
(I410
I360
tp86
a(I450
I400
tp87
aa(lp88
(I390
I222
tp89
a(I432
I302
tp90
aa(lp91
(I395
I132
tp92
a(I432
I182
tp93
aa(lp94
(I409
I91
tp95
a(I444
I124
tp96
aa(lp97
(I514
I95
tp98
a(I544
I130
tp99
aa(lp100
(I558
I97
tp101
a(I588
I124
tp102
aa(lp103
(I638
I97
tp104
a(I667
I128
tp105
aa(lp106
(I680
I95
tp107
a(I710
I128
tp108
aa(lp109
(I757
I97
tp110
a(I784
I128
tp111
aa(lp112
(I846
I199
tp113
a(I865
I240
tp114
aa(lp115
(I991
I745
tp116
a(I1046
I764
tp117
aa(lp118
(I1147
I749
tp119
a(I1257
I764
tp120
aa(lp121
(I668
I562
tp122
a(I711
I577
tp123
aa(lp124
(I390
I575
tp125
a(I430
I596
tp126
aa(lp127
(I383
I538
tp128
a(I418
I558
tp129
aa(lp130
(I433
I815
tp131
a(I572
I904
tp132
aa(lp133
(I702
I834
tp134
a(I819
I880
tp135
aa.