(lp0
(lp1
(I498
I180
tp2
a(I750
I251
tp3
aa(lp4
(I411
I361
tp5
a(I444
I405
tp6
aa(lp7
(I637
I361
tp8
a(I749
I526
tp9
aa(lp10
(I749
I413
tp11
a(I797
I429
tp12
aa(lp13
(I753
I442
tp14
a(I808
I457
tp15
aa(lp16
(I849
I460
tp17
a(I888
I488
tp18
aa(lp19
(I594
I400
tp20
a(I627
I423
tp21
aa(lp22
(I870
I253
tp23
a(I893
I307
tp24
aa.